(dp0
S'/home/yazdani/work/ros/indigo/catkin_ws/src/robosherlock/descriptors/typesystem/cv_types.xml'
p1
F1459519007.2674077
sS'/home/yazdani/work/ros/indigo/catkin_ws/src/robosherlock/descriptors/typesystem/ros_types.xml'
p2
F1459519007.2674077
sS'/home/yazdani/work/ros/indigo/catkin_ws/src/robosherlock/scripts/generate_typesystem.py'
p3
F1459514827.4714935
sS'/home/yazdani/work/ros/indigo/catkin_ws/src/robosherlock/descriptors/typesystem/annotation_types.xml'
p4
F1459519007.2674077
sS'/home/yazdani/work/ros/indigo/catkin_ws/src/robosherlock/descriptors/typesystem/scene_types.xml'
p5
F1459519007.2674077
sS'/home/yazdani/work/ros/indigo/catkin_ws/src/robosherlock/descriptors/typesystem/core_types.xml'
p6
F1459519007.2674077
sS'/home/yazdani/work/ros/indigo/catkin_ws/src/robosherlock/descriptors/typesystem/pcl_types.xml'
p7
F1459519007.2674077
sS'/home/yazdani/work/ros/indigo/catkin_ws/src/robosherlock/descriptors/typesystem/tf_types.xml'
p8
F1459519007.2674077
s.