(dp0
S'/home/yazdani/work/ros/indigo/catkin_ws/src/robosherlock/descriptors/annotators/io/TFBroadcaster.xml'
p1
F1459514827.4674933
sS'/home/yazdani/work/ros/indigo/catkin_ws/src/iai_rescue_robosherlock/descriptors/annotators/semAnnotator.xml'
p2
F1459512188.5235476
sS'/home/yazdani/work/ros/indigo/catkin_ws/src/robosherlock/descriptors/annotators/io/StorageWriter.xml'
p3
F1459514827.4674933
sS'/home/yazdani/work/ros/indigo/catkin_ws/src/iai_rescue_robosherlock/descriptors/annotators/pclAnnotator.xml'
p4
F1459512188.5235476
sS'/home/yazdani/work/ros/indigo/catkin_ws/src/robosherlock/descriptors/annotators/io/CollectionReader.xml'
p5
F1459514827.4674933
sS'/home/yazdani/work/ros/indigo/catkin_ws/src/robosherlock/descriptors/annotators/filter/RegionFilter.xml'
p6
F1459514827.4674933
sS'/home/yazdani/work/ros/indigo/catkin_ws/src/robosherlock/scripts/update_analysis_engines.py'
p7
F1459514827.4714935
sS'/home/yazdani/work/ros/indigo/catkin_ws/src/robosherlock/descriptors/annotators/tracker/ClusterTracker.xml'
p8
F1459514827.4674933
sS'/home/yazdani/work/ros/indigo/catkin_ws/src/robosherlock/descriptors/annotators/recognition/KNNClassifier.xml'
p9
F1459514827.4674933
sS'/home/yazdani/work/ros/indigo/catkin_ws/src/robosherlock/descriptors/annotators/segmentation/PointCloudClusterExtractor.xml'
p10
F1459514827.4674933
sS'/home/yazdani/work/ros/indigo/catkin_ws/src/robosherlock/descriptors/annotators/annotation/FeatureAnnotator.xml'
p11
F1459514827.4634933
sS'/home/yazdani/work/ros/indigo/catkin_ws/src/robosherlock/descriptors/annotators/utils/PointCloudDownsampler.xml'
p12
F1459514827.4674933
sS'/home/yazdani/work/ros/indigo/catkin_ws/src/robosherlock/descriptors/annotators/detection/BoardDetector.xml'
p13
F1459514827.4634933
sS'/home/yazdani/work/ros/indigo/catkin_ws/src/robosherlock/descriptors/annotators/io/ResultAdvertiser.xml'
p14
F1459514827.4674933
sS'/home/yazdani/work/ros/indigo/catkin_ws/src/robosherlock/descriptors/annotators/utils/ImagePreprocessor.xml'
p15
F1459514827.4674933
sS'/home/yazdani/work/ros/indigo/catkin_ws/src/robosherlock/descriptors/annotators/tracker/ObjectIdentityResolution.xml'
p16
F1459514827.4674933
sS'/home/yazdani/work/ros/indigo/catkin_ws/src/robosherlock/descriptors/annotators/recognition/ClassifierDetection.xml'
p17
F1459514827.4674933
sS'/home/yazdani/work/ros/indigo/catkin_ws/src/robosherlock/descriptors/annotators/recognition/MLNInferencer.xml'
p18
F1459514827.4674933
sS'/home/yazdani/work/ros/indigo/catkin_ws/src/robosherlock/descriptors/annotators/utils/BlurDetectorAnnotator.xml'
p19
F1459514827.4674933
sS'/home/yazdani/work/ros/indigo/catkin_ws/src/robosherlock/descriptors/annotators/annotation/SacModelAnnotator.xml'
p20
F1459514827.4634933
sS'/home/yazdani/work/ros/indigo/catkin_ws/src/robosherlock/descriptors/annotators/annotation/GogglesAnnotator.xml'
p21
F1459514827.4634933
sS'/home/yazdani/work/ros/indigo/catkin_ws/src/robosherlock/descriptors/annotators/recognition/LinemodAnnotator.xml'
p22
F1459514827.4674933
sS'/home/yazdani/work/ros/indigo/catkin_ws/src/robosherlock/descriptors/annotators/annotation/PCLDescriptorExtractor.xml'
p23
F1459514827.4634933
sS'/home/yazdani/work/ros/indigo/catkin_ws/src/robosherlock/descriptors/annotators/utils/Trigger.xml'
p24
F1459514827.4674933
sS'/home/yazdani/work/ros/indigo/catkin_ws/src/robosherlock/descriptors/annotators/detection/PlaneAnnotator.xml'
p25
F1459514827.4634933
sS'/home/yazdani/work/ros/indigo/catkin_ws/src/robosherlock/descriptors/annotators/filter/PointCloudFilter.xml'
p26
F1459514827.4674933
sS'/home/yazdani/work/ros/indigo/catkin_ws/src/robosherlock/descriptors/annotators/segmentation/ImageSegmentationAnnotator.xml'
p27
F1459514827.4674933
sS'/home/yazdani/work/ros/indigo/catkin_ws/src/robosherlock/descriptors/annotators/annotation/ClusterColorHistogramCalculator.xml'
p28
F1459514827.4634933
sS'/home/yazdani/work/ros/indigo/catkin_ws/src/robosherlock/descriptors/annotators/annotation/PCLVFHFeatureExtractor.xml'
p29
F1459514827.4634933
sS'/home/yazdani/work/ros/indigo/catkin_ws/src/robosherlock/descriptors/annotators/annotation/NormalEstimator.xml'
p30
F1459514827.4634933
sS'/home/yazdani/work/ros/indigo/catkin_ws/src/robosherlock/descriptors/annotators/utils/ClusterMerger.xml'
p31
F1459514827.4674933
sS'/home/yazdani/work/ros/indigo/catkin_ws/src/robosherlock/descriptors/annotators/annotation/Cluster3DGeometryAnnotator.xml'
p32
F1459514827.4634933
sS'/home/yazdani/work/ros/indigo/catkin_ws/src/iai_rescue_robosherlock/descriptors/annotators/regionAnnotator.xml'
p33
F1459512188.5235476
sS'/home/yazdani/work/ros/indigo/catkin_ws/src/robosherlock/descriptors/annotators/annotation/PrimitiveShapeAnnotator.xml'
p34
F1459514827.4634933
sS'/home/yazdani/work/ros/indigo/catkin_ws/src/robosherlock/descriptors/annotators/annotation/SupervoxelAnnotator.xml'
p35
F1459514827.4634933
sS'/home/yazdani/work/ros/indigo/catkin_ws/src/iai_rescue_robosherlock/descriptors/analysis_engines/my_demo.xml'
p36
F1459512188.5235476
sS'/home/yazdani/work/ros/indigo/catkin_ws/src/robosherlock/descriptors/annotators/annotation/ClusterTFLocationAnnotator.xml'
p37
F1459514827.4634933
sS'/home/yazdani/work/ros/indigo/catkin_ws/src/robosherlock/descriptors/annotators/segmentation/PointCloudColorSegmentation.xml'
p38
F1459514827.4674933
s.